; Function Attrs: nounwind sspstrong uwtable
define internal i64 @sockopt_unpack(i64 noundef %0, i64 noundef %1) #0 {
  %3 = alloca i64, align 8
  call void @llvm.lifetime.start.p0(i64 8, ptr nonnull %3) #6
  %.pr.i.i = load i64, ptr @sockopt_data.rbimpl_id, align 8, !tbaa !6
  %.not4.i.i = icmp eq i64 %.pr.i.i, 0
  br i1 %.not4.i.i, label %.lr.ph.i.i, label %sockopt_data.exit

.lr.ph.i.i:                                       ; preds = %2, %.lr.ph.i.i
  %4 = tail call i64 @rb_intern2(ptr noundef nonnull @.str.5, i64 noundef 4) #6
  store i64 %4, ptr @sockopt_data.rbimpl_id, align 8, !tbaa !6
  %.not.i.i = icmp eq i64 %4, 0
  br i1 %.not.i.i, label %.lr.ph.i.i, label %sockopt_data.exit, !llvm.loop !10

sockopt_data.exit:                                ; preds = %.lr.ph.i.i, %2
  %.lcssa.i.i = phi i64 [ %.pr.i.i, %2 ], [ %4, %.lr.ph.i.i ]
  %5 = tail call i64 @rb_attr_get(i64 noundef %0, i64 noundef %.lcssa.i.i) #6
  store i64 %5, ptr %3, align 8, !tbaa !6
  %6 = call i64 @rb_string_value(ptr noundef nonnull %3) #6
  %7 = load i64, ptr %3, align 8, !tbaa !6
  call void @llvm.lifetime.end.p0(i64 8, ptr nonnull %3) #6
  %.pr.i = load i64, ptr @sockopt_unpack.rbimpl_id, align 8, !tbaa !6
  %.not4.i = icmp eq i64 %.pr.i, 0
  br i1 %.not4.i, label %.lr.ph.i, label %rbimpl_intern_const.exit

.lr.ph.i:                                         ; preds = %sockopt_data.exit, %.lr.ph.i
  %8 = call i64 @rb_intern2(ptr noundef nonnull @.str.13, i64 noundef 6) #6
  store i64 %8, ptr @sockopt_unpack.rbimpl_id, align 8, !tbaa !6
  %.not.i = icmp eq i64 %8, 0
  br i1 %.not.i, label %.lr.ph.i, label %rbimpl_intern_const.exit, !llvm.loop !10

rbimpl_intern_const.exit:                         ; preds = %.lr.ph.i, %sockopt_data.exit
  %.lcssa.i = phi i64 [ %.pr.i, %sockopt_data.exit ], [ %8, %.lr.ph.i ]
  %9 = call i64 (i64, i64, i32, ...) @rb_funcall(i64 noundef %7, i64 noundef %.lcssa.i, i32 noundef 1, i64 noundef %1) #6
  ret i64 %9
}